target datalayout = "e-m:e-p270:32:32-p271:32:32-p272:64:64-i64:64-i128:128-f80:128-n8:16:32:64-S128"
target triple = "x86_64-pc-linux-gnu"

%"struct.llvm::AppleAcceleratorTable::HeaderData" = type { i64, %"class.llvm::SmallVector" }
%"class.llvm::SmallVector" = type <{ %"class.llvm::SmallVectorImpl", %"struct.llvm::SmallVectorStorage", [4 x i8] }>
%"class.llvm::SmallVectorImpl" = type { %"class.llvm::SmallVectorTemplateBase" }
%"class.llvm::SmallVectorTemplateBase" = type { %"class.llvm::SmallVectorTemplateCommon" }
%"class.llvm::SmallVectorTemplateCommon" = type { %"class.llvm::SmallVectorBase" }
%"class.llvm::SmallVectorBase" = type { ptr, i32, i32 }
%"struct.llvm::SmallVectorStorage" = type { [12 x i8] }
%"class.llvm::DWARFFormValue" = type { i16, i8, %"struct.llvm::DWARFFormValue::ValueType", ptr, ptr }
%"struct.llvm::DWARFFormValue::ValueType" = type { %union.anon, ptr, i64 }
%union.anon = type { i64 }
%"class.std::optional.2" = type { %"struct.std::_Optional_base.3" }
%"struct.std::_Optional_base.3" = type { %"struct.std::_Optional_payload.5" }
%"struct.std::_Optional_payload.5" = type { %"struct.std::_Optional_payload_base.base", [7 x i8] }
%"struct.std::_Optional_payload_base.base" = type <{ %"union.std::_Optional_payload_base<unsigned long>::_Storage", i8 }>
%"union.std::_Optional_payload_base<unsigned long>::_Storage" = type { i64 }
%"class.std::optional.8" = type { %"struct.std::_Optional_base.9" }
%"struct.std::_Optional_base.9" = type { %"struct.std::_Optional_payload.11" }
%"struct.std::_Optional_payload.11" = type { %"struct.std::_Optional_payload_base.base.13", [7 x i8] }
%"struct.std::_Optional_payload_base.base.13" = type <{ %"union.std::_Optional_payload_base<llvm::DWARFFormValue>::_Storage", i8 }>
%"union.std::_Optional_payload_base<llvm::DWARFFormValue>::_Storage" = type { %"class.llvm::DWARFFormValue" }
%"struct.std::_Optional_payload_base.6" = type <{ %"union.std::_Optional_payload_base<unsigned long>::_Storage", i8, [7 x i8] }>
%"struct.std::_Optional_payload_base.12" = type <{ %"union.std::_Optional_payload_base<llvm::DWARFFormValue>::_Storage", i8, [7 x i8] }>

; Function Attrs: mustprogress nounwind uwtable
define linkonce_odr hidden void @_ZNSt22_Optional_payload_baseImE8_StorageImLb1EEC2IJmEEESt10in_place_tDpOT_(ptr noundef nonnull align 8 dereferenceable(8) %0, ptr noundef nonnull align 8 dereferenceable(8) %1) unnamed_addr #0 comdat align 2 {
  %3 = alloca ptr, align 8
  %4 = alloca ptr, align 8
  store ptr %0, ptr %3, align 8
  store ptr %1, ptr %4, align 8
  %5 = load ptr, ptr %3, align 8
  %6 = load ptr, ptr %4, align 8
  %7 = load i64, ptr %6, align 8
  store i64 %7, ptr %5, align 8
  ret void
}

; Function Attrs: mustprogress nounwind uwtable
define linkonce_odr hidden void @_ZNSt22_Optional_payload_baseImE8_StorageImLb1EEC2Ev(ptr noundef nonnull align 8 dereferenceable(8) %0) unnamed_addr #0 comdat align 2 {
  %2 = alloca ptr, align 8
  store ptr %0, ptr %2, align 8
  ret void
}

; Function Attrs: mustprogress nounwind uwtable
define linkonce_odr hidden void @_ZNSt22_Optional_payload_baseImEC2IJmEEESt10in_place_tDpOT_(ptr noundef nonnull align 8 dereferenceable(9) %0, ptr noundef nonnull align 8 dereferenceable(8) %1) unnamed_addr #0 comdat align 2 {
  %3 = alloca ptr, align 8
  %4 = alloca ptr, align 8
  store ptr %0, ptr %3, align 8
  store ptr %1, ptr %4, align 8
  %5 = load ptr, ptr %3, align 8
  %6 = getelementptr inbounds nuw %"struct.std::_Optional_payload_base.6", ptr %5, i32 0, i32 0
  %7 = load ptr, ptr %4, align 8
  call void @_ZNSt22_Optional_payload_baseImE8_StorageImLb1EEC2IJmEEESt10in_place_tDpOT_(ptr noundef nonnull align 8 dereferenceable(8) %6, ptr noundef nonnull align 8 dereferenceable(8) %7)
  %8 = getelementptr inbounds nuw %"struct.std::_Optional_payload_base.6", ptr %5, i32 0, i32 1
  store i8 1, ptr %8, align 8
  ret void
}

; Function Attrs: mustprogress nounwind uwtable
define linkonce_odr hidden void @_ZNSt22_Optional_payload_baseImEC2Ev(ptr noundef nonnull align 8 dereferenceable(9) %0) unnamed_addr #0 comdat align 2 {
  %2 = alloca ptr, align 8
  store ptr %0, ptr %2, align 8
  %3 = load ptr, ptr %2, align 8
  %4 = getelementptr inbounds nuw %"struct.std::_Optional_payload_base.6", ptr %3, i32 0, i32 0
  call void @_ZNSt22_Optional_payload_baseImE8_StorageImLb1EEC2Ev(ptr noundef nonnull align 8 dereferenceable(8) %4) #13
  %5 = getelementptr inbounds nuw %"struct.std::_Optional_payload_base.6", ptr %3, i32 0, i32 1
  store i8 0, ptr %5, align 8
  ret void
}

; Function Attrs: mustprogress nounwind uwtable
define linkonce_odr hidden void @_ZNSt17_Optional_payloadImLb1ELb1ELb1EECI2St22_Optional_payload_baseImEIJmEEESt10in_place_tDpOT_(ptr noundef nonnull align 8 dereferenceable(9) %0, ptr noundef nonnull align 8 dereferenceable(8) %1) unnamed_addr #0 comdat align 2 {
  %3 = alloca ptr, align 8
  %4 = alloca ptr, align 8
  store ptr %0, ptr %3, align 8
  store ptr %1, ptr %4, align 8
  %5 = load ptr, ptr %3, align 8
  %6 = load ptr, ptr %4, align 8
  call void @_ZNSt22_Optional_payload_baseImEC2IJmEEESt10in_place_tDpOT_(ptr noundef nonnull align 8 dereferenceable(9) %5, ptr noundef nonnull align 8 dereferenceable(8) %6)
  ret void
}

; Function Attrs: mustprogress nounwind uwtable
define linkonce_odr hidden noundef nonnull align 8 dereferenceable(48) ptr @_ZNSt22_Optional_payload_baseIN4llvm14DWARFFormValueEE6_M_getEv(ptr noundef nonnull align 8 dereferenceable(49) %0) #0 comdat align 2 {
  %2 = alloca ptr, align 8
  store ptr %0, ptr %2, align 8
  %3 = load ptr, ptr %2, align 8
  %4 = getelementptr inbounds nuw %"struct.std::_Optional_payload_base.12", ptr %3, i32 0, i32 0
  ret ptr %4
}

; Function Attrs: mustprogress nounwind uwtable
define linkonce_odr hidden void @_ZNSt17_Optional_payloadImLb1ELb1ELb1EEC2Ev(ptr noundef nonnull align 8 dereferenceable(9) %0) unnamed_addr #0 comdat align 2 {
  %2 = alloca ptr, align 8
  store ptr %0, ptr %2, align 8
  %3 = load ptr, ptr %2, align 8
  call void @_ZNSt22_Optional_payload_baseImEC2Ev(ptr noundef nonnull align 8 dereferenceable(9) %3) #13
  ret void
}

; Function Attrs: mustprogress nounwind uwtable
define linkonce_odr hidden void @_ZNSt14_Optional_baseImLb1ELb1EEC2IJmETnNSt9enable_ifIX18is_constructible_vImDpT_EEbE4typeELb0EEESt10in_place_tDpOS3_(ptr noundef nonnull align 8 dereferenceable(16) %0, ptr noundef nonnull align 8 dereferenceable(8) %1) unnamed_addr #0 comdat align 2 {
  %3 = alloca ptr, align 8
  %4 = alloca ptr, align 8
  store ptr %0, ptr %3, align 8
  store ptr %1, ptr %4, align 8
  %5 = load ptr, ptr %3, align 8
  %6 = getelementptr inbounds nuw %"struct.std::_Optional_base.3", ptr %5, i32 0, i32 0
  %7 = load ptr, ptr %4, align 8
  call void @_ZNSt17_Optional_payloadImLb1ELb1ELb1EECI2St22_Optional_payload_baseImEIJmEEESt10in_place_tDpOT_(ptr noundef nonnull align 8 dereferenceable(9) %6, ptr noundef nonnull align 8 dereferenceable(8) %7)
  ret void
}

; Function Attrs: mustprogress nounwind uwtable
define linkonce_odr hidden noundef nonnull align 8 dereferenceable(48) ptr @_ZNSt19_Optional_base_implIN4llvm14DWARFFormValueESt14_Optional_baseIS1_Lb1ELb1EEE6_M_getEv(ptr noundef nonnull align 1 dereferenceable(1) %0) #0 comdat align 2 {
  %2 = alloca ptr, align 8
  store ptr %0, ptr %2, align 8
  %3 = load ptr, ptr %2, align 8
  br label %4

4:                                                ; preds = %1
  br label %5

5:                                                ; preds = %4
  %6 = getelementptr inbounds nuw %"struct.std::_Optional_base.9", ptr %3, i32 0, i32 0
  %7 = call noundef nonnull align 8 dereferenceable(48) ptr @_ZNSt22_Optional_payload_baseIN4llvm14DWARFFormValueEE6_M_getEv(ptr noundef nonnull align 8 dereferenceable(49) %6) #13
  ret ptr %7
}

; Function Attrs: mustprogress nounwind uwtable
define linkonce_odr hidden void @_ZNSt14_Optional_baseImLb1ELb1EEC2Ev(ptr noundef nonnull align 8 dereferenceable(16) %0) unnamed_addr #0 comdat align 2 {
  %2 = alloca ptr, align 8
  store ptr %0, ptr %2, align 8
  %3 = load ptr, ptr %2, align 8
  %4 = getelementptr inbounds nuw %"struct.std::_Optional_base.3", ptr %3, i32 0, i32 0
  call void @_ZNSt17_Optional_payloadImLb1ELb1ELb1EEC2Ev(ptr noundef nonnull align 8 dereferenceable(9) %4) #13
  ret void
}

; Function Attrs: mustprogress nounwind uwtable
define linkonce_odr hidden noundef zeroext i1 @_ZNKSt19_Optional_base_implIN4llvm14DWARFFormValueESt14_Optional_baseIS1_Lb1ELb1EEE13_M_is_engagedEv(ptr noundef nonnull align 1 dereferenceable(1) %0) #0 comdat align 2 {
  %2 = alloca ptr, align 8
  store ptr %0, ptr %2, align 8
  %3 = load ptr, ptr %2, align 8
  %4 = getelementptr inbounds nuw %"struct.std::_Optional_base.9", ptr %3, i32 0, i32 0
  %5 = getelementptr inbounds nuw %"struct.std::_Optional_payload_base.12", ptr %4, i32 0, i32 1
  %6 = load i8, ptr %5, align 8
  %7 = trunc i8 %6 to i1
  ret i1 %7
}

; Function Attrs: mustprogress nounwind uwtable
define linkonce_odr hidden void @_ZNSt8optionalImEC2ImTnNSt9enable_ifIX7__and_vISt6__not_ISt7is_sameIS0_NSt9remove_cvINSt16remove_referenceIT_E4typeEE4typeEEES3_IS4_ISt10in_place_tSB_EESt16is_constructibleImJS7_EESt14is_convertibleIS7_mEEEbE4typeELb1EEEOS7_(ptr noundef nonnull align 8 dereferenceable(16) %0, ptr noundef nonnull align 8 dereferenceable(8) %1) unnamed_addr #0 comdat align 2 {
  %3 = alloca ptr, align 8
  %4 = alloca ptr, align 8
  store ptr %0, ptr %3, align 8
  store ptr %1, ptr %4, align 8
  %5 = load ptr, ptr %3, align 8
  %6 = load ptr, ptr %4, align 8
  call void @_ZNSt14_Optional_baseImLb1ELb1EEC2IJmETnNSt9enable_ifIX18is_constructible_vImDpT_EEbE4typeELb0EEESt10in_place_tDpOS3_(ptr noundef nonnull align 8 dereferenceable(16) %5, ptr noundef nonnull align 8 dereferenceable(8) %6)
  ret void
}

; Function Attrs: mustprogress nounwind uwtable
define linkonce_odr hidden noundef i64 @_ZNK4llvm14DWARFFormValue12getRawUValueEv(ptr noundef nonnull align 8 dereferenceable(48) %0) #0 comdat align 2 {
  %2 = alloca ptr, align 8
  store ptr %0, ptr %2, align 8
  %3 = load ptr, ptr %2, align 8
  %4 = getelementptr inbounds nuw %"class.llvm::DWARFFormValue", ptr %3, i32 0, i32 2
  %5 = getelementptr inbounds nuw %"struct.llvm::DWARFFormValue::ValueType", ptr %4, i32 0, i32 0
  %6 = load i64, ptr %5, align 8
  ret i64 %6
}

; Function Attrs: mustprogress nounwind uwtable
define linkonce_odr hidden noundef zeroext i16 @_ZNK4llvm14DWARFFormValue7getFormEv(ptr noundef nonnull align 8 dereferenceable(48) %0) #0 comdat align 2 {
  %2 = alloca ptr, align 8
  store ptr %0, ptr %2, align 8
  %3 = load ptr, ptr %2, align 8
  %4 = getelementptr inbounds nuw %"class.llvm::DWARFFormValue", ptr %3, i32 0, i32 0
  %5 = load i16, ptr %4, align 8
  ret i16 %5
}

; Function Attrs: mustprogress nounwind uwtable
define linkonce_odr hidden noundef ptr @_ZNSt8optionalIN4llvm14DWARFFormValueEEptEv(ptr noundef nonnull align 8 dereferenceable(56) %0) #0 comdat align 2 {
  %2 = alloca ptr, align 8
  store ptr %0, ptr %2, align 8
  %3 = load ptr, ptr %2, align 8
  %4 = call noundef nonnull align 8 dereferenceable(48) ptr @_ZNSt19_Optional_base_implIN4llvm14DWARFFormValueESt14_Optional_baseIS1_Lb1ELb1EEE6_M_getEv(ptr noundef nonnull align 1 dereferenceable(1) %3) #13
  ret ptr %4
}

; Function Attrs: mustprogress nounwind uwtable
define linkonce_odr hidden void @_ZNSt8optionalImEC2ESt9nullopt_t(ptr noundef nonnull align 8 dereferenceable(16) %0) unnamed_addr #0 comdat align 2 {
  %2 = alloca ptr, align 8
  store ptr %0, ptr %2, align 8
  %3 = load ptr, ptr %2, align 8
  call void @_ZNSt14_Optional_baseImLb1ELb1EEC2Ev(ptr noundef nonnull align 8 dereferenceable(16) %3) #13
  ret void
}

; Function Attrs: mustprogress nounwind uwtable
define linkonce_odr hidden noundef zeroext i1 @_ZNKSt8optionalIN4llvm14DWARFFormValueEEcvbEv(ptr noundef nonnull align 8 dereferenceable(56) %0) #0 comdat align 2 {
  %2 = alloca ptr, align 8
  store ptr %0, ptr %2, align 8
  %3 = load ptr, ptr %2, align 8
  %4 = call noundef zeroext i1 @_ZNKSt19_Optional_base_implIN4llvm14DWARFFormValueESt14_Optional_baseIS1_Lb1ELb1EEE13_M_is_engagedEv(ptr noundef nonnull align 1 dereferenceable(1) %3) #13
  ret i1 %4
}

; Function Attrs: mustprogress nounwind uwtable
define dso_local { i64, i8 } @_ZNK4llvm21AppleAcceleratorTable10HeaderData13extractOffsetESt8optionalINS_14DWARFFormValueEE(ptr noundef nonnull align 8 dereferenceable(40) %0, ptr noundef byval(%"class.std::optional.8") align 8 %1) #0 align 2 {
  %3 = alloca %"class.std::optional.2", align 8
  %4 = alloca ptr, align 8
  %5 = alloca i64, align 8
  store ptr %0, ptr %4, align 8
  %6 = load ptr, ptr %4, align 8
  %7 = call noundef zeroext i1 @_ZNKSt8optionalIN4llvm14DWARFFormValueEEcvbEv(ptr noundef nonnull align 8 dereferenceable(56) %1) #13
  br i1 %7, label %9, label %8

8:                                                ; preds = %2
  call void @_ZNSt8optionalImEC2ESt9nullopt_t(ptr noundef nonnull align 8 dereferenceable(16) %3) #13
  br label %28

9:                                                ; preds = %2
  %10 = call noundef ptr @_ZNSt8optionalIN4llvm14DWARFFormValueEEptEv(ptr noundef nonnull align 8 dereferenceable(56) %1) #13
  %11 = call noundef zeroext i16 @_ZNK4llvm14DWARFFormValue7getFormEv(ptr noundef nonnull align 8 dereferenceable(48) %10)
  %12 = zext i16 %11 to i32
  switch i32 %12, label %19 [
    i32 17, label %13
    i32 18, label %13
    i32 19, label %13
    i32 20, label %13
    i32 21, label %13
  ]

13:                                               ; preds = %9, %9, %9, %9, %9
  %14 = call noundef ptr @_ZNSt8optionalIN4llvm14DWARFFormValueEEptEv(ptr noundef nonnull align 8 dereferenceable(56) %1) #13
  %15 = call noundef i64 @_ZNK4llvm14DWARFFormValue12getRawUValueEv(ptr noundef nonnull align 8 dereferenceable(48) %14)
  %16 = getelementptr inbounds nuw %"struct.llvm::AppleAcceleratorTable::HeaderData", ptr %6, i32 0, i32 0
  %17 = load i64, ptr %16, align 8
  %18 = add i64 %15, %17
  store i64 %18, ptr %5, align 8
  call void @_ZNSt8optionalImEC2ImTnNSt9enable_ifIX7__and_vISt6__not_ISt7is_sameIS0_NSt9remove_cvINSt16remove_referenceIT_E4typeEE4typeEEES3_IS4_ISt10in_place_tSB_EESt16is_constructibleImJS7_EESt14is_convertibleIS7_mEEEbE4typeELb1EEEOS7_(ptr noundef nonnull align 8 dereferenceable(16) %3, ptr noundef nonnull align 8 dereferenceable(8) %5) #13
  br label %28

19:                                               ; preds = %9
  %20 = call noundef ptr @_ZNSt8optionalIN4llvm14DWARFFormValueEEptEv(ptr noundef nonnull align 8 dereferenceable(56) %1) #13
  %21 = call { i64, i8 } @_ZNK4llvm14DWARFFormValue18getAsSectionOffsetEv(ptr noundef nonnull align 8 dereferenceable(48) %20)
  %22 = getelementptr inbounds nuw %"class.std::optional.2", ptr %3, i32 0, i32 0
  %23 = getelementptr inbounds nuw %"struct.std::_Optional_base.3", ptr %22, i32 0, i32 0
  %24 = getelementptr inbounds nuw { i64, i8 }, ptr %23, i32 0, i32 0
  %25 = extractvalue { i64, i8 } %21, 0
  store i64 %25, ptr %24, align 8
  %26 = getelementptr inbounds nuw { i64, i8 }, ptr %23, i32 0, i32 1
  %27 = extractvalue { i64, i8 } %21, 1
  store i8 %27, ptr %26, align 8
  br label %28

28:                                               ; preds = %19, %13, %8
  %29 = getelementptr inbounds nuw %"class.std::optional.2", ptr %3, i32 0, i32 0
  %30 = getelementptr inbounds nuw %"struct.std::_Optional_base.3", ptr %29, i32 0, i32 0
  %31 = load { i64, i8 }, ptr %30, align 8
  ret { i64, i8 } %31
}