; Function Attrs: mustprogress nounwind uwtable
define dso_local { i64, i8 } @_ZNK4llvm21AppleAcceleratorTable10HeaderData13extractOffsetESt8optionalINS_14DWARFFormValueEE(ptr noundef nonnull readonly align 8 captures(none) dereferenceable(40) %0, ptr noundef byval(%"class.std::optional.8") align 8 %1) local_unnamed_addr #3 align 2 {
  %3 = getelementptr inbounds nuw i8, ptr %1, i64 48
  %4 = load i8, ptr %3, align 8
  %5 = trunc i8 %4 to i1
  br i1 %5, label %6, label %17

6:                                                ; preds = %2
  %7 = load i16, ptr %1, align 8
  %.off = add i16 %7, -17
  %switch = icmp ult i16 %.off, 5
  br i1 %switch, label %8, label %13

8:                                                ; preds = %6
  %9 = getelementptr inbounds nuw i8, ptr %1, i64 8
  %10 = load i64, ptr %9, align 8
  %11 = load i64, ptr %0, align 8
  %12 = add i64 %11, %10
  br label %17

13:                                               ; preds = %6
  %14 = call { i64, i8 } @_ZNK4llvm14DWARFFormValue18getAsSectionOffsetEv(ptr noundef nonnull align 8 dereferenceable(48) %1) #27
  %15 = extractvalue { i64, i8 } %14, 0
  %16 = extractvalue { i64, i8 } %14, 1
  br label %17

17:                                               ; preds = %2, %13, %8
  %.sroa.0.0 = phi i64 [ %12, %8 ], [ %15, %13 ], [ undef, %2 ]
  %.sroa.3.0 = phi i8 [ 1, %8 ], [ %16, %13 ], [ 0, %2 ]
  %.fca.0.insert = insertvalue { i64, i8 } poison, i64 %.sroa.0.0, 0
  %.fca.1.insert = insertvalue { i64, i8 } %.fca.0.insert, i8 %.sroa.3.0, 1
  ret { i64, i8 } %.fca.1.insert
}